(lp0
(lp1
(irule
Rule
p2
(dp3
S'leftTriggers'
p4
(irule
Guard
p5
(dp6
S'endOfString'
p7
I00
sS'specifications'
p8
(lp9
(irule
FeatureMatrix
p10
(dp11
S'featuresAndPolarities'
p12
(lp13
(I01
S'coronal'
p14
tp15
asbasS'starred'
p16
I00
sS'side'
p17
S'L'
p18
sbsS'structuralChange'
p19
(irule
ConstantPhoneme
p20
(dp21
S'p'
p22
Vr
p23
sbsS'rightTriggers'
p24
(irule
Guard
p25
(dp26
g7
I00
sg8
(lp27
sg16
I00
sg17
S'R'
p28
sbsS'focus'
p29
(irule
FeatureMatrix
p30
(dp31
g12
(lp32
(I01
S'liquid'
p33
tp34
asbsbaa(lp35
(irule
Rule
p36
(dp37
g4
(irule
Guard
p38
(dp39
g7
I00
sg8
(lp40
(irule
FeatureMatrix
p41
(dp42
g12
(lp43
(I00
S'rounded'
p44
tp45
a(I01
g14
tp46
asbasg16
I00
sg17
g18
sbsg19
(irule
ConstantPhoneme
p47
(dp48
g22
g23
sbsg24
(irule
Guard
p49
(dp50
g7
I00
sg8
(lp51
sg16
I00
sg17
g28
sbsg29
(irule
FeatureMatrix
p52
(dp53
g12
(lp54
(I01
S'lateral'
p55
tp56
asbsbaa(lp57
(irule
Rule
p58
(dp59
g4
(irule
Guard
p60
(dp61
g7
I00
sg8
(lp62
(irule
FeatureMatrix
p63
(dp64
g12
(lp65
(I00
g55
tp66
a(I01
g14
tp67
asbasg16
I00
sg17
g18
sbsg19
(irule
ConstantPhoneme
p68
(dp69
g22
g23
sbsg24
(irule
Guard
p70
(dp71
g7
I00
sg8
(lp72
sg16
I00
sg17
g28
sbsg29
(irule
FeatureMatrix
p73
(dp74
g12
(lp75
(I01
g55
tp76
asbsbaa(lp77
(irule
Rule
p78
(dp79
g4
(irule
Guard
p80
(dp81
g7
I00
sg8
(lp82
(irule
FeatureMatrix
p83
(dp84
g12
(lp85
(I01
g14
tp86
asbasg16
I00
sg17
g18
sbsg19
(irule
ConstantPhoneme
p87
(dp88
g22
g23
sbsg24
(irule
Guard
p89
(dp90
g7
I00
sg8
(lp91
(irule
FeatureMatrix
p92
(dp93
g12
(lp94
sbasg16
I00
sg17
g28
sbsg29
(irule
FeatureMatrix
p95
(dp96
g12
(lp97
(I01
S'alveolar'
p98
tp99
asbsbaa(lp100
(irule
Rule
p101
(dp102
g4
(irule
Guard
p103
(dp104
g7
I00
sg8
(lp105
(irule
FeatureMatrix
p106
(dp107
g12
(lp108
(I00
S'labiodental'
p109
tp110
a(I01
g14
tp111
asbasg16
I00
sg17
g18
sbsg19
(irule
ConstantPhoneme
p112
(dp113
g22
g23
sbsg24
(irule
Guard
p114
(dp115
g7
I00
sg8
(lp116
sg16
I00
sg17
g28
sbsg29
(irule
FeatureMatrix
p117
(dp118
g12
(lp119
(I01
g55
tp120
asbsbaa(lp121
(irule
Rule
p122
(dp123
g4
(irule
Guard
p124
(dp125
g7
I00
sg8
(lp126
(irule
FeatureMatrix
p127
(dp128
g12
(lp129
(I00
S'glide'
p130
tp131
a(I01
g14
tp132
asbasg16
I00
sg17
g18
sbsg19
(irule
ConstantPhoneme
p133
(dp134
g22
g23
sbsg24
(irule
Guard
p135
(dp136
g7
I00
sg8
(lp137
sg16
I00
sg17
g28
sbsg29
(irule
FeatureMatrix
p138
(dp139
g12
(lp140
(I01
g55
tp141
asbsbaa(lp142
(irule
Rule
p143
(dp144
g4
(irule
Guard
p145
(dp146
g7
I00
sg8
(lp147
(irule
FeatureMatrix
p148
(dp149
g12
(lp150
(I00
S'bilabial'
p151
tp152
a(I01
g14
tp153
asbasg16
I00
sg17
g18
sbsg19
(irule
ConstantPhoneme
p154
(dp155
g22
g23
sbsg24
(irule
Guard
p156
(dp157
g7
I00
sg8
(lp158
sg16
I00
sg17
g28
sbsg29
(irule
FeatureMatrix
p159
(dp160
g12
(lp161
(I01
g55
tp162
asbsbaa(lp163
(irule
Rule
p164
(dp165
g4
(irule
Guard
p166
(dp167
g7
I00
sg8
(lp168
(irule
FeatureMatrix
p169
(dp170
g12
(lp171
(I01
g14
tp172
a(I00
S'central'
p173
tp174
asbasg16
I00
sg17
g18
sbsg19
(irule
ConstantPhoneme
p175
(dp176
g22
g23
sbsg24
(irule
Guard
p177
(dp178
g7
I00
sg8
(lp179
sg16
I00
sg17
g28
sbsg29
(irule
FeatureMatrix
p180
(dp181
g12
(lp182
(I01
g98
tp183
asbsbaa(lp184
(irule
Rule
p185
(dp186
g4
(irule
Guard
p187
(dp188
g7
I00
sg8
(lp189
(irule
FeatureMatrix
p190
(dp191
g12
(lp192
(I00
S'back'
p193
tp194
a(I01
g14
tp195
asbasg16
I00
sg17
g18
sbsg19
(irule
ConstantPhoneme
p196
(dp197
g22
g23
sbsg24
(irule
Guard
p198
(dp199
g7
I00
sg8
(lp200
sg16
I00
sg17
g28
sbsg29
(irule
FeatureMatrix
p201
(dp202
g12
(lp203
(I01
g33
tp204
asbsbaa(lp205
(irule
Rule
p206
(dp207
g4
(irule
Guard
p208
(dp209
g7
I00
sg8
(lp210
(irule
FeatureMatrix
p211
(dp212
g12
(lp213
(I00
S'high'
p214
tp215
a(I01
g14
tp216
asbasg16
I00
sg17
g18
sbsg19
(irule
ConstantPhoneme
p217
(dp218
g22
g23
sbsg24
(irule
Guard
p219
(dp220
g7
I00
sg8
(lp221
sg16
I00
sg17
g28
sbsg29
(irule
FeatureMatrix
p222
(dp223
g12
(lp224
(I01
g33
tp225
asbsbaa.