(lp0
(lp1
(irule
Rule
p2
(dp3
S'leftTriggers'
p4
(irule
Guard
p5
(dp6
S'endOfString'
p7
I00
sS'specifications'
p8
(lp9
(irule
FeatureMatrix
p10
(dp11
S'featuresAndPolarities'
p12
(lp13
(I01
S'nasal'
p14
tp15
asbasS'starred'
p16
I00
sS'side'
p17
S'L'
p18
sbsS'structuralChange'
p19
(irule
FeatureMatrix
p20
(dp21
g12
(lp22
(I00
S'fricative'
p23
tp24
a(I00
S'approximate'
p25
tp26
a(I01
S'stop'
p27
tp28
a(I00
S'sonorant'
p29
tp30
a(I00
S'liquid'
p31
tp32
asbsS'rightTriggers'
p33
(irule
Guard
p34
(dp35
g7
I00
sg8
(lp36
sg16
I00
sg17
S'R'
p37
sbsS'focus'
p38
(irule
FeatureMatrix
p39
(dp40
g12
(lp41
(I00
S'vowel'
p42
tp43
asbsbaa(lp44
(irule
Rule
p45
(dp46
g4
(irule
Guard
p47
(dp48
g7
I00
sg8
(lp49
(irule
FeatureMatrix
p50
(dp51
g12
(lp52
(I00
g42
tp53
asbasg16
I00
sg17
g18
sbsg19
(irule
FeatureMatrix
p54
(dp55
g12
(lp56
(I00
g23
tp57
a(I00
g25
tp58
a(I01
g27
tp59
a(I00
g29
tp60
a(I00
g31
tp61
asbsg33
(irule
Guard
p62
(dp63
g7
I00
sg8
(lp64
sg16
I00
sg17
g37
sbsg38
(irule
FeatureMatrix
p65
(dp66
g12
(lp67
(I00
S'glide'
p68
tp69
a(I00
g42
tp70
asbsbaa(lp71
(irule
Rule
p72
(dp73
g4
(irule
Guard
p74
(dp75
g7
I00
sg8
(lp76
(irule
FeatureMatrix
p77
(dp78
g12
(lp79
(I00
g23
tp80
a(I01
g14
tp81
asbasg16
I00
sg17
g18
sbsg19
(irule
FeatureMatrix
p82
(dp83
g12
(lp84
(I00
g23
tp85
a(I00
g25
tp86
a(I01
g27
tp87
a(I00
g29
tp88
a(I00
g31
tp89
asbsg33
(irule
Guard
p90
(dp91
g7
I00
sg8
(lp92
sg16
I00
sg17
g37
sbsg38
(irule
FeatureMatrix
p93
(dp94
g12
(lp95
(I00
g42
tp96
asbsbaa(lp97
(irule
Rule
p98
(dp99
g4
(irule
Guard
p100
(dp101
g7
I00
sg8
(lp102
(irule
FeatureMatrix
p103
(dp104
g12
(lp105
(I00
g23
tp106
a(I00
g42
tp107
asbasg16
I00
sg17
g18
sbsg19
(irule
FeatureMatrix
p108
(dp109
g12
(lp110
(I00
g23
tp111
a(I00
g25
tp112
a(I01
g27
tp113
a(I00
g29
tp114
a(I00
g31
tp115
asbsg33
(irule
Guard
p116
(dp117
g7
I00
sg8
(lp118
sg16
I00
sg17
g37
sbsg38
(irule
FeatureMatrix
p119
(dp120
g12
(lp121
(I00
S'palatal'
p122
tp123
a(I00
g42
tp124
asbsbaa(lp125
(irule
Rule
p126
(dp127
g4
(irule
Guard
p128
(dp129
g7
I00
sg8
(lp130
(irule
FeatureMatrix
p131
(dp132
g12
(lp133
(I00
g42
tp134
a(I00
S'alveopalatal'
p135
tp136
asbasg16
I00
sg17
g18
sbsg19
(irule
FeatureMatrix
p137
(dp138
g12
(lp139
(I00
g23
tp140
a(I00
g25
tp141
a(I01
g27
tp142
a(I00
g29
tp143
a(I00
g31
tp144
asbsg33
(irule
Guard
p145
(dp146
g7
I00
sg8
(lp147
sg16
I00
sg17
g37
sbsg38
(irule
FeatureMatrix
p148
(dp149
g12
(lp150
(I00
g68
tp151
a(I00
g42
tp152
asbsbaa(lp153
(irule
Rule
p154
(dp155
g4
(irule
Guard
p156
(dp157
g7
I00
sg8
(lp158
(irule
FeatureMatrix
p159
(dp160
g12
(lp161
(I00
S'affricate'
p162
tp163
a(I01
g14
tp164
asbasg16
I00
sg17
g18
sbsg19
(irule
FeatureMatrix
p165
(dp166
g12
(lp167
(I00
g23
tp168
a(I00
g25
tp169
a(I01
g27
tp170
a(I00
g29
tp171
a(I00
g31
tp172
asbsg33
(irule
Guard
p173
(dp174
g7
I00
sg8
(lp175
sg16
I00
sg17
g37
sbsg38
(irule
FeatureMatrix
p176
(dp177
g12
(lp178
(I00
g42
tp179
asbsbaa(lp180
(irule
Rule
p181
(dp182
g4
(irule
Guard
p183
(dp184
g7
I00
sg8
(lp185
(irule
FeatureMatrix
p186
(dp187
g12
(lp188
(I00
g42
tp189
asbasg16
I00
sg17
g18
sbsg19
(irule
FeatureMatrix
p190
(dp191
g12
(lp192
(I00
g23
tp193
a(I00
g25
tp194
a(I01
g27
tp195
a(I00
g29
tp196
a(I00
g31
tp197
asbsg33
(irule
Guard
p198
(dp199
g7
I00
sg8
(lp200
(irule
FeatureMatrix
p201
(dp202
g12
(lp203
sbasg16
I00
sg17
g37
sbsg38
(irule
FeatureMatrix
p204
(dp205
g12
(lp206
(I00
g68
tp207
a(I00
g42
tp208
asbsbaa(lp209
(irule
Rule
p210
(dp211
g4
(irule
Guard
p212
(dp213
g7
I00
sg8
(lp214
(irule
FeatureMatrix
p215
(dp216
g12
(lp217
(I00
S'rounded'
p218
tp219
a(I01
g14
tp220
asbasg16
I00
sg17
g18
sbsg19
(irule
FeatureMatrix
p221
(dp222
g12
(lp223
(I00
g23
tp224
a(I00
g25
tp225
a(I01
g27
tp226
a(I00
g29
tp227
a(I00
g31
tp228
asbsg33
(irule
Guard
p229
(dp230
g7
I00
sg8
(lp231
sg16
I00
sg17
g37
sbsg38
(irule
FeatureMatrix
p232
(dp233
g12
(lp234
(I00
g42
tp235
asbsbaa(lp236
(irule
Rule
p237
(dp238
g4
(irule
Guard
p239
(dp240
g7
I00
sg8
(lp241
(irule
FeatureMatrix
p242
(dp243
g12
(lp244
(I00
S'back'
p245
tp246
a(I01
g14
tp247
asbasg16
I00
sg17
g18
sbsg19
(irule
FeatureMatrix
p248
(dp249
g12
(lp250
(I00
g23
tp251
a(I00
g25
tp252
a(I01
g27
tp253
a(I00
g29
tp254
a(I00
g31
tp255
asbsg33
(irule
Guard
p256
(dp257
g7
I00
sg8
(lp258
sg16
I00
sg17
g37
sbsg38
(irule
FeatureMatrix
p259
(dp260
g12
(lp261
(I00
g42
tp262
asbsbaa(lp263
(irule
Rule
p264
(dp265
g4
(irule
Guard
p266
(dp267
g7
I00
sg8
(lp268
(irule
FeatureMatrix
p269
(dp270
g12
(lp271
(I00
g218
tp272
a(I00
g42
tp273
asbasg16
I00
sg17
g18
sbsg19
(irule
FeatureMatrix
p274
(dp275
g12
(lp276
(I00
g23
tp277
a(I00
g25
tp278
a(I01
g27
tp279
a(I00
g29
tp280
a(I00
g31
tp281
asbsg33
(irule
Guard
p282
(dp283
g7
I00
sg8
(lp284
sg16
I00
sg17
g37
sbsg38
(irule
FeatureMatrix
p285
(dp286
g12
(lp287
(I00
g68
tp288
a(I00
g42
tp289
asbsbaa.