(lp0
(lp1
(irule
Rule
p2
(dp3
S'leftTriggers'
p4
(irule
Guard
p5
(dp6
S'endOfString'
p7
I00
sS'specifications'
p8
(lp9
sS'starred'
p10
I00
sS'side'
p11
S'L'
p12
sbsS'structuralChange'
p13
(irule
FeatureMatrix
p14
(dp15
S'featuresAndPolarities'
p16
(lp17
(I01
S'palatal'
p18
tp19
asbsS'rightTriggers'
p20
(irule
Guard
p21
(dp22
g7
I00
sg8
(lp23
(irule
FeatureMatrix
p24
(dp25
g16
(lp26
(I01
S'front'
p27
tp28
asbasg10
I00
sg11
S'R'
p29
sbsS'focus'
p30
(irule
ConstantPhoneme
p31
(dp32
S'p'
p33
Vk
p34
sbsbaa(lp35
(irule
Rule
p36
(dp37
g4
(irule
Guard
p38
(dp39
g7
I00
sg8
(lp40
sg10
I00
sg11
g12
sbsg13
(irule
FeatureMatrix
p41
(dp42
g16
(lp43
(I01
g18
tp44
asbsg20
(irule
Guard
p45
(dp46
g7
I00
sg8
(lp47
(irule
FeatureMatrix
p48
(dp49
g16
(lp50
(I00
S'rounded'
p51
tp52
a(I01
S'tense'
p53
tp54
asbasg10
I00
sg11
g29
sbsg30
(irule
ConstantPhoneme
p55
(dp56
g33
g34
sbsbaa(lp57
(irule
Rule
p58
(dp59
g4
(irule
Guard
p60
(dp61
g7
I00
sg8
(lp62
sg10
I00
sg11
g12
sbsg13
(irule
FeatureMatrix
p63
(dp64
g16
(lp65
(I01
g18
tp66
asbsg20
(irule
Guard
p67
(dp68
g7
I00
sg8
(lp69
(irule
FeatureMatrix
p70
(dp71
g16
(lp72
(I00
S'labiodental'
p73
tp74
a(I01
g27
tp75
asbasg10
I00
sg11
g29
sbsg30
(irule
ConstantPhoneme
p76
(dp77
g33
g34
sbsbaa(lp78
(irule
Rule
p79
(dp80
g4
(irule
Guard
p81
(dp82
g7
I00
sg8
(lp83
sg10
I00
sg11
g12
sbsg13
(irule
FeatureMatrix
p84
(dp85
g16
(lp86
(I01
g18
tp87
asbsg20
(irule
Guard
p88
(dp89
g7
I00
sg8
(lp90
(irule
FeatureMatrix
p91
(dp92
g16
(lp93
(I00
S'fricative'
p94
tp95
a(I01
g27
tp96
asbasg10
I00
sg11
g29
sbsg30
(irule
ConstantPhoneme
p97
(dp98
g33
g34
sbsbaa(lp99
(irule
Rule
p100
(dp101
g4
(irule
Guard
p102
(dp103
g7
I00
sg8
(lp104
sg10
I00
sg11
g12
sbsg13
(irule
FeatureMatrix
p105
(dp106
g16
(lp107
(I01
g18
tp108
asbsg20
(irule
Guard
p109
(dp110
g7
I00
sg8
(lp111
(irule
FeatureMatrix
p112
(dp113
g16
(lp114
(I00
g51
tp115
a(I01
g27
tp116
asbasg10
I00
sg11
g29
sbsg30
(irule
ConstantPhoneme
p117
(dp118
g33
g34
sbsbaa(lp119
(irule
Rule
p120
(dp121
g4
(irule
Guard
p122
(dp123
g7
I00
sg8
(lp124
sg10
I00
sg11
g12
sbsg13
(irule
FeatureMatrix
p125
(dp126
g16
(lp127
(I01
g18
tp128
asbsg20
(irule
Guard
p129
(dp130
g7
I00
sg8
(lp131
(irule
FeatureMatrix
p132
(dp133
g16
(lp134
(I00
S'bilabial'
p135
tp136
a(I01
g27
tp137
asbasg10
I00
sg11
g29
sbsg30
(irule
ConstantPhoneme
p138
(dp139
g33
g34
sbsbaa(lp140
(irule
Rule
p141
(dp142
g4
(irule
Guard
p143
(dp144
g7
I00
sg8
(lp145
sg10
I00
sg11
g12
sbsg13
(irule
FeatureMatrix
p146
(dp147
g16
(lp148
(I01
g18
tp149
asbsg20
(irule
Guard
p150
(dp151
g7
I00
sg8
(lp152
(irule
FeatureMatrix
p153
(dp154
g16
(lp155
(I01
g27
tp156
a(I00
S'central'
p157
tp158
asbasg10
I00
sg11
g29
sbsg30
(irule
ConstantPhoneme
p159
(dp160
g33
g34
sbsbaa(lp161
(irule
Rule
p162
(dp163
g4
(irule
Guard
p164
(dp165
g7
I00
sg8
(lp166
sg10
I00
sg11
g12
sbsg13
(irule
FeatureMatrix
p167
(dp168
g16
(lp169
(I01
g18
tp170
asbsg20
(irule
Guard
p171
(dp172
g7
I00
sg8
(lp173
(irule
FeatureMatrix
p174
(dp175
g16
(lp176
(I00
S'glide'
p177
tp178
a(I01
g27
tp179
asbasg10
I00
sg11
g29
sbsg30
(irule
ConstantPhoneme
p180
(dp181
g33
g34
sbsbaa(lp182
(irule
Rule
p183
(dp184
g4
(irule
Guard
p185
(dp186
g7
I00
sg8
(lp187
sg10
I00
sg11
g12
sbsg13
(irule
FeatureMatrix
p188
(dp189
g16
(lp190
(I01
g18
tp191
asbsg20
(irule
Guard
p192
(dp193
g7
I00
sg8
(lp194
(irule
FeatureMatrix
p195
(dp196
g16
(lp197
(I00
S'back'
p198
tp199
a(I01
g53
tp200
asbasg10
I00
sg11
g29
sbsg30
(irule
ConstantPhoneme
p201
(dp202
g33
g34
sbsbaa(lp203
(irule
Rule
p204
(dp205
g4
(irule
Guard
p206
(dp207
g7
I00
sg8
(lp208
sg10
I00
sg11
g12
sbsg13
(irule
FeatureMatrix
p209
(dp210
g16
(lp211
(I01
g18
tp212
asbsg20
(irule
Guard
p213
(dp214
g7
I00
sg8
(lp215
(irule
FeatureMatrix
p216
(dp217
g16
(lp218
(I00
S'lateral'
p219
tp220
a(I01
g27
tp221
asbasg10
I00
sg11
g29
sbsg30
(irule
ConstantPhoneme
p222
(dp223
g33
g34
sbsbaa.