(lp0
(lp1
(irule
Rule
p2
(dp3
S'leftTriggers'
p4
(irule
Guard
p5
(dp6
S'endOfString'
p7
I01
sS'specifications'
p8
(lp9
sS'starred'
p10
I00
sS'side'
p11
S'L'
p12
sbsS'structuralChange'
p13
(irule
ConstantPhoneme
p14
(dp15
S'p'
p16
Vd
p17
sbsS'rightTriggers'
p18
(irule
Guard
p19
(dp20
g7
I00
sg8
(lp21
sg10
I00
sg11
S'R'
p22
sbsS'focus'
p23
(irule
FeatureMatrix
p24
(dp25
S'featuresAndPolarities'
p26
(lp27
(I01
S'fricative'
p28
tp29
asbsbaa(lp30
(irule
Rule
p31
(dp32
g4
(irule
Guard
p33
(dp34
g7
I00
sg8
(lp35
(irule
FeatureMatrix
p36
(dp37
g26
(lp38
sbasg10
I00
sg11
g12
sbsg13
(irule
ConstantPhoneme
p39
(dp40
g16
V\u03b8
p41
sbsg18
(irule
Guard
p42
(dp43
g7
I00
sg8
(lp44
sg10
I00
sg11
g22
sbsg23
(irule
ConstantPhoneme
p45
(dp46
g16
g17
sbsbaa(lp47
(irule
Rule
p48
(dp49
g4
(irule
Guard
p50
(dp51
g7
I00
sg8
(lp52
sg10
I00
sg11
g12
sbsg13
(irule
ConstantPhoneme
p53
(dp54
g16
g17
sbsg18
(irule
Guard
p55
(dp56
g7
I00
sg8
(lp57
(irule
FeatureMatrix
p58
(dp59
g26
(lp60
(I01
S'voice'
p61
tp62
asbasg10
I00
sg11
g22
sbsg23
(irule
ConstantPhoneme
p63
(dp64
g16
g41
sbsbaa(lp65
(irule
Rule
p66
(dp67
g4
(irule
Guard
p68
(dp69
g7
I00
sg8
(lp70
sg10
I00
sg11
g12
sbsg13
(irule
ConstantPhoneme
p71
(dp72
g16
g17
sbsg18
(irule
Guard
p73
(dp74
g7
I00
sg8
(lp75
(irule
FeatureMatrix
p76
(dp77
g26
(lp78
(I00
S'alveolar'
p79
tp80
asbasg10
I00
sg11
g22
sbsg23
(irule
ConstantPhoneme
p81
(dp82
g16
g41
sbsbaa(lp83
(irule
Rule
p84
(dp85
g4
(irule
Guard
p86
(dp87
g7
I00
sg8
(lp88
sg10
I00
sg11
g12
sbsg13
(irule
ConstantPhoneme
p89
(dp90
g16
g17
sbsg18
(irule
Guard
p91
(dp92
g7
I00
sg8
(lp93
(irule
FeatureMatrix
p94
(dp95
g26
(lp96
(I00
S'coronal'
p97
tp98
asbasg10
I00
sg11
g22
sbsg23
(irule
ConstantPhoneme
p99
(dp100
g16
g41
sbsbaa(lp101
(irule
Rule
p102
(dp103
g4
(irule
Guard
p104
(dp105
g7
I00
sg8
(lp106
sg10
I00
sg11
g12
sbsg13
(irule
ConstantPhoneme
p107
(dp108
g16
g17
sbsg18
(irule
Guard
p109
(dp110
g7
I00
sg8
(lp111
(irule
FeatureMatrix
p112
(dp113
g26
(lp114
(I00
S'stop'
p115
tp116
asbasg10
I00
sg11
g22
sbsg23
(irule
ConstantPhoneme
p117
(dp118
g16
g41
sbsbaa(lp119
(irule
Rule
p120
(dp121
g4
(irule
Guard
p122
(dp123
g7
I00
sg8
(lp124
sg10
I00
sg11
g12
sbsg13
(irule
ConstantPhoneme
p125
(dp126
g16
g17
sbsg18
(irule
Guard
p127
(dp128
g7
I00
sg8
(lp129
(irule
FeatureMatrix
p130
(dp131
g26
(lp132
(I01
S'front'
p133
tp134
asbasg10
I00
sg11
g22
sbsg23
(irule
FeatureMatrix
p135
(dp136
g26
(lp137
sbsbaa(lp138
(irule
Rule
p139
(dp140
g4
(irule
Guard
p141
(dp142
g7
I00
sg8
(lp143
sg10
I00
sg11
g12
sbsg13
(irule
ConstantPhoneme
p144
(dp145
g16
g17
sbsg18
(irule
Guard
p146
(dp147
g7
I00
sg8
(lp148
(irule
FeatureMatrix
p149
(dp150
g26
(lp151
(I01
S'sonorant'
p152
tp153
asbasg10
I00
sg11
g22
sbsg23
(irule
ConstantPhoneme
p154
(dp155
g16
g41
sbsbaa(lp156
(irule
Rule
p157
(dp158
g4
(irule
Guard
p159
(dp160
g7
I01
sg8
(lp161
sg10
I00
sg11
g12
sbsg13
(irule
ConstantPhoneme
p162
(dp163
g16
g17
sbsg18
(irule
Guard
p164
(dp165
g7
I00
sg8
(lp166
(irule
FeatureMatrix
p167
(dp168
g26
(lp169
sbasg10
I00
sg11
g22
sbsg23
(irule
FeatureMatrix
p170
(dp171
g26
(lp172
(I01
g97
tp173
asbsbaa(lp174
(irule
Rule
p175
(dp176
g4
(irule
Guard
p177
(dp178
g7
I00
sg8
(lp179
(irule
FeatureMatrix
p180
(dp181
g26
(lp182
(I01
S'vowel'
p183
tp184
asbasg10
I00
sg11
g12
sbsg13
(irule
ConstantPhoneme
p185
(dp186
g16
g41
sbsg18
(irule
Guard
p187
(dp188
g7
I00
sg8
(lp189
sg10
I00
sg11
g22
sbsg23
(irule
ConstantPhoneme
p190
(dp191
g16
g17
sbsbaa.