(lp0
(lp1
(irule
Rule
p2
(dp3
S'leftTriggers'
p4
(irule
Guard
p5
(dp6
S'endOfString'
p7
I00
sS'specifications'
p8
(lp9
(irule
FeatureMatrix
p10
(dp11
S'featuresAndPolarities'
p12
(lp13
(I01
S'nasal'
p14
tp15
asbasS'starred'
p16
I00
sS'side'
p17
S'L'
p18
sbsS'structuralChange'
p19
(irule
FeatureMatrix
p20
(dp21
g12
(lp22
(I01
S'voice'
p23
tp24
asbsS'rightTriggers'
p25
(irule
Guard
p26
(dp27
g7
I00
sg8
(lp28
sg16
I00
sg17
S'R'
p29
sbsS'focus'
p30
(irule
FeatureMatrix
p31
(dp32
g12
(lp33
(I00
S'coronal'
p34
tp35
asbsbaa(lp36
(irule
Rule
p37
(dp38
g4
(irule
Guard
p39
(dp40
g7
I00
sg8
(lp41
(irule
FeatureMatrix
p42
(dp43
g12
(lp44
(I00
S'vowel'
p45
tp46
asbasg16
I00
sg17
g18
sbsg19
(irule
FeatureMatrix
p47
(dp48
g12
(lp49
(I01
g23
tp50
asbsg25
(irule
Guard
p51
(dp52
g7
I00
sg8
(lp53
sg16
I00
sg17
g29
sbsg30
(irule
FeatureMatrix
p54
(dp55
g12
(lp56
(I00
g34
tp57
asbsbaa(lp58
(irule
Rule
p59
(dp60
g4
(irule
Guard
p61
(dp62
g7
I00
sg8
(lp63
(irule
FeatureMatrix
p64
(dp65
g12
(lp66
(I00
S'low'
p67
tp68
a(I00
S'tense'
p69
tp70
asbasg16
I00
sg17
g18
sbsg19
(irule
FeatureMatrix
p71
(dp72
g12
(lp73
(I01
g23
tp74
asbsg25
(irule
Guard
p75
(dp76
g7
I00
sg8
(lp77
sg16
I00
sg17
g29
sbsg30
(irule
FeatureMatrix
p78
(dp79
g12
(lp80
(I00
g34
tp81
asbsbaa(lp82
(irule
Rule
p83
(dp84
g4
(irule
Guard
p85
(dp86
g7
I00
sg8
(lp87
(irule
FeatureMatrix
p88
(dp89
g12
(lp90
(I00
S'fricative'
p91
tp92
a(I00
g45
tp93
asbasg16
I00
sg17
g18
sbsg19
(irule
FeatureMatrix
p94
(dp95
g12
(lp96
(I01
g23
tp97
asbsg25
(irule
Guard
p98
(dp99
g7
I00
sg8
(lp100
sg16
I00
sg17
g29
sbsg30
(irule
FeatureMatrix
p101
(dp102
g12
(lp103
(I00
g34
tp104
asbsbaa(lp105
(irule
Rule
p106
(dp107
g4
(irule
Guard
p108
(dp109
g7
I00
sg8
(lp110
(irule
FeatureMatrix
p111
(dp112
g12
(lp113
sbasg16
I00
sg17
g18
sbsg19
(irule
FeatureMatrix
p114
(dp115
g12
(lp116
(I01
g23
tp117
asbsg25
(irule
Guard
p118
(dp119
g7
I00
sg8
(lp120
(irule
FeatureMatrix
p121
(dp122
g12
(lp123
(I01
g45
tp124
asbasg16
I00
sg17
g29
sbsg30
(irule
FeatureMatrix
p125
(dp126
g12
(lp127
(I00
g34
tp128
asbsbaa(lp129
(irule
Rule
p130
(dp131
g4
(irule
Guard
p132
(dp133
g7
I00
sg8
(lp134
(irule
FeatureMatrix
p135
(dp136
g12
(lp137
sbasg16
I00
sg17
g18
sbsg19
(irule
FeatureMatrix
p138
(dp139
g12
(lp140
(I01
g23
tp141
asbsg25
(irule
Guard
p142
(dp143
g7
I00
sg8
(lp144
(irule
FeatureMatrix
p145
(dp146
g12
(lp147
(I01
g23
tp148
asbasg16
I00
sg17
g29
sbsg30
(irule
FeatureMatrix
p149
(dp150
g12
(lp151
(I00
g34
tp152
asbsbaa(lp153
(irule
Rule
p154
(dp155
g4
(irule
Guard
p156
(dp157
g7
I00
sg8
(lp158
(irule
FeatureMatrix
p159
(dp160
g12
(lp161
(I00
g45
tp162
asbasg16
I00
sg17
g18
sbsg19
(irule
FeatureMatrix
p163
(dp164
g12
(lp165
(I01
g23
tp166
asbsg25
(irule
Guard
p167
(dp168
g7
I00
sg8
(lp169
(irule
FeatureMatrix
p170
(dp171
g12
(lp172
sbasg16
I00
sg17
g29
sbsg30
(irule
FeatureMatrix
p173
(dp174
g12
(lp175
(I00
g34
tp176
asbsbaa(lp177
(irule
Rule
p178
(dp179
g4
(irule
Guard
p180
(dp181
g7
I00
sg8
(lp182
(irule
FeatureMatrix
p183
(dp184
g12
(lp185
(I01
g14
tp186
asbasg16
I00
sg17
g18
sbsg19
(irule
FeatureMatrix
p187
(dp188
g12
(lp189
(I01
g23
tp190
asbsg25
(irule
Guard
p191
(dp192
g7
I00
sg8
(lp193
(irule
FeatureMatrix
p194
(dp195
g12
(lp196
sbasg16
I00
sg17
g29
sbsg30
(irule
FeatureMatrix
p197
(dp198
g12
(lp199
(I00
g34
tp200
asbsbaa(lp201
(irule
Rule
p202
(dp203
g4
(irule
Guard
p204
(dp205
g7
I00
sg8
(lp206
(irule
FeatureMatrix
p207
(dp208
g12
(lp209
(I00
S'rounded'
p210
tp211
a(I00
g45
tp212
asbasg16
I00
sg17
g18
sbsg19
(irule
FeatureMatrix
p213
(dp214
g12
(lp215
(I01
g23
tp216
asbsg25
(irule
Guard
p217
(dp218
g7
I00
sg8
(lp219
sg16
I00
sg17
g29
sbsg30
(irule
FeatureMatrix
p220
(dp221
g12
(lp222
(I00
g34
tp223
asbsbaa(lp224
(irule
Rule
p225
(dp226
g4
(irule
Guard
p227
(dp228
g7
I00
sg8
(lp229
(irule
FeatureMatrix
p230
(dp231
g12
(lp232
(I00
g45
tp233
a(I01
g23
tp234
asbasg16
I00
sg17
g18
sbsg19
(irule
FeatureMatrix
p235
(dp236
g12
(lp237
(I01
g23
tp238
asbsg25
(irule
Guard
p239
(dp240
g7
I00
sg8
(lp241
sg16
I00
sg17
g29
sbsg30
(irule
FeatureMatrix
p242
(dp243
g12
(lp244
(I00
g34
tp245
asbsbaa.