(lp0
(lp1
(irule
Rule
p2
(dp3
S'leftTriggers'
p4
(irule
Guard
p5
(dp6
S'endOfString'
p7
I00
sS'specifications'
p8
(lp9
(irule
FeatureMatrix
p10
(dp11
S'featuresAndPolarities'
p12
(lp13
(I00
S'stop'
p14
tp15
asbasS'starred'
p16
I00
sS'side'
p17
S'L'
p18
sbsS'structuralChange'
p19
(irule
ConstantPhoneme
p20
(dp21
S'p'
p22
Vr\u030c
p23
sbsS'rightTriggers'
p24
(irule
Guard
p25
(dp26
g7
I00
sg8
(lp27
(irule
FeatureMatrix
p28
(dp29
g12
(lp30
(I00
S'alveolar'
p31
tp32
asbasg16
I00
sg17
S'R'
p33
sbsS'focus'
p34
(irule
FeatureMatrix
p35
(dp36
g12
(lp37
(I01
S'liquid'
p38
tp39
asbsbaa(lp40
(irule
Rule
p41
(dp42
g4
(irule
Guard
p43
(dp44
g7
I00
sg8
(lp45
(irule
FeatureMatrix
p46
(dp47
g12
(lp48
(I01
S'vowel'
p49
tp50
asbasg16
I00
sg17
g18
sbsg19
(irule
ConstantPhoneme
p51
(dp52
g22
g23
sbsg24
(irule
Guard
p53
(dp54
g7
I00
sg8
(lp55
(irule
FeatureMatrix
p56
(dp57
g12
(lp58
(I01
g49
tp59
asbasg16
I00
sg17
g33
sbsg34
(irule
FeatureMatrix
p60
(dp61
g12
(lp62
(I01
S'trill'
p63
tp64
asbsbaa(lp65
(irule
Rule
p66
(dp67
g4
(irule
Guard
p68
(dp69
g7
I00
sg8
(lp70
(irule
FeatureMatrix
p71
(dp72
g12
(lp73
(I00
g31
tp74
asbasg16
I00
sg17
g18
sbsg19
(irule
ConstantPhoneme
p75
(dp76
g22
g23
sbsg24
(irule
Guard
p77
(dp78
g7
I00
sg8
(lp79
(irule
FeatureMatrix
p80
(dp81
g12
(lp82
(I01
S'voice'
p83
tp84
asbasg16
I00
sg17
g33
sbsg34
(irule
ConstantPhoneme
p85
(dp86
g22
Vr\u0303
p87
sbsbaa(lp88
(irule
Rule
p89
(dp90
g4
(irule
Guard
p91
(dp92
g7
I00
sg8
(lp93
(irule
FeatureMatrix
p94
(dp95
g12
(lp96
(I00
g31
tp97
asbasg16
I00
sg17
g18
sbsg19
(irule
ConstantPhoneme
p98
(dp99
g22
g23
sbsg24
(irule
Guard
p100
(dp101
g7
I00
sg8
(lp102
(irule
FeatureMatrix
p103
(dp104
g12
(lp105
(I01
g49
tp106
asbasg16
I00
sg17
g33
sbsg34
(irule
FeatureMatrix
p107
(dp108
g12
(lp109
(I01
g38
tp110
asbsbaa(lp111
(irule
Rule
p112
(dp113
g4
(irule
Guard
p114
(dp115
g7
I00
sg8
(lp116
(irule
FeatureMatrix
p117
(dp118
g12
(lp119
(I00
g31
tp120
asbasg16
I00
sg17
g18
sbsg19
(irule
ConstantPhoneme
p121
(dp122
g22
g23
sbsg24
(irule
Guard
p123
(dp124
g7
I00
sg8
(lp125
(irule
FeatureMatrix
p126
(dp127
g12
(lp128
(I00
g31
tp129
asbasg16
I00
sg17
g33
sbsg34
(irule
FeatureMatrix
p130
(dp131
g12
(lp132
(I01
g38
tp133
asbsbaa(lp134
(irule
Rule
p135
(dp136
g4
(irule
Guard
p137
(dp138
g7
I00
sg8
(lp139
(irule
FeatureMatrix
p140
(dp141
g12
(lp142
(I01
S'sonorant'
p143
tp144
asbasg16
I00
sg17
g18
sbsg19
(irule
ConstantPhoneme
p145
(dp146
g22
g23
sbsg24
(irule
Guard
p147
(dp148
g7
I00
sg8
(lp149
(irule
FeatureMatrix
p150
(dp151
g12
(lp152
(I00
g31
tp153
asbasg16
I00
sg17
g33
sbsg34
(irule
FeatureMatrix
p154
(dp155
g12
(lp156
(I01
g63
tp157
asbsbaa(lp158
(irule
Rule
p159
(dp160
g4
(irule
Guard
p161
(dp162
g7
I00
sg8
(lp163
(irule
FeatureMatrix
p164
(dp165
g12
(lp166
(I00
g31
tp167
asbasg16
I00
sg17
g18
sbsg19
(irule
ConstantPhoneme
p168
(dp169
g22
g23
sbsg24
(irule
Guard
p170
(dp171
g7
I00
sg8
(lp172
(irule
FeatureMatrix
p173
(dp174
g12
(lp175
(I00
S'coronal'
p176
tp177
asbasg16
I00
sg17
g33
sbsg34
(irule
FeatureMatrix
p178
(dp179
g12
(lp180
(I01
g63
tp181
asbsbaa(lp182
(irule
Rule
p183
(dp184
g4
(irule
Guard
p185
(dp186
g7
I00
sg8
(lp187
(irule
FeatureMatrix
p188
(dp189
g12
(lp190
(I01
g49
tp191
asbasg16
I00
sg17
g18
sbsg19
(irule
ConstantPhoneme
p192
(dp193
g22
g23
sbsg24
(irule
Guard
p194
(dp195
g7
I00
sg8
(lp196
(irule
FeatureMatrix
p197
(dp198
g12
(lp199
(I00
g31
tp200
asbasg16
I00
sg17
g33
sbsg34
(irule
FeatureMatrix
p201
(dp202
g12
(lp203
(I01
g63
tp204
asbsbaa(lp205
(irule
Rule
p206
(dp207
g4
(irule
Guard
p208
(dp209
g7
I00
sg8
(lp210
(irule
FeatureMatrix
p211
(dp212
g12
(lp213
(I00
g31
tp214
asbasg16
I00
sg17
g18
sbsg19
(irule
ConstantPhoneme
p215
(dp216
g22
g23
sbsg24
(irule
Guard
p217
(dp218
g7
I00
sg8
(lp219
(irule
FeatureMatrix
p220
(dp221
g12
(lp222
(I01
g143
tp223
asbasg16
I00
sg17
g33
sbsg34
(irule
FeatureMatrix
p224
(dp225
g12
(lp226
(I01
g38
tp227
asbsbaa(lp228
(irule
Rule
p229
(dp230
g4
(irule
Guard
p231
(dp232
g7
I00
sg8
(lp233
(irule
FeatureMatrix
p234
(dp235
g12
(lp236
(I00
g176
tp237
asbasg16
I00
sg17
g18
sbsg19
(irule
ConstantPhoneme
p238
(dp239
g22
g23
sbsg24
(irule
Guard
p240
(dp241
g7
I00
sg8
(lp242
(irule
FeatureMatrix
p243
(dp244
g12
(lp245
(I00
g31
tp246
asbasg16
I00
sg17
g33
sbsg34
(irule
FeatureMatrix
p247
(dp248
g12
(lp249
(I01
g38
tp250
asbsbaa.