(lp0
(lp1
(irule
Rule
p2
(dp3
S'leftTriggers'
p4
(irule
Guard
p5
(dp6
S'endOfString'
p7
I00
sS'specifications'
p8
(lp9
sS'starred'
p10
I00
sS'side'
p11
S'L'
p12
sbsS'structuralChange'
p13
(irule
FeatureMatrix
p14
(dp15
S'featuresAndPolarities'
p16
(lp17
(I00
S'unreleased'
p18
tp19
asbsS'rightTriggers'
p20
(irule
Guard
p21
(dp22
g7
I00
sg8
(lp23
(irule
FeatureMatrix
p24
(dp25
g16
(lp26
sbasg10
I00
sg11
S'R'
p27
sbsS'focus'
p28
(irule
FeatureMatrix
p29
(dp30
g16
(lp31
sbsbaa(lp32
(irule
Rule
p33
(dp34
g4
(irule
Guard
p35
(dp36
g7
I00
sg8
(lp37
sg10
I00
sg11
g12
sbsg13
(irule
FeatureMatrix
p38
(dp39
g16
(lp40
(I01
g18
tp41
asbsg20
(irule
Guard
p42
(dp43
g7
I01
sg8
(lp44
sg10
I00
sg11
g27
sbsg28
(irule
FeatureMatrix
p45
(dp46
g16
(lp47
(I00
S'voice'
p48
tp49
asbsbaa(lp50
(irule
Rule
p51
(dp52
g4
(irule
Guard
p53
(dp54
g7
I00
sg8
(lp55
sg10
I00
sg11
g12
sbsg13
(irule
FeatureMatrix
p56
(dp57
g16
(lp58
(I00
g18
tp59
asbsg20
(irule
Guard
p60
(dp61
g7
I00
sg8
(lp62
(irule
FeatureMatrix
p63
(dp64
g16
(lp65
(I00
S'velar'
p66
tp67
asbasg10
I00
sg11
g27
sbsg28
(irule
FeatureMatrix
p68
(dp69
g16
(lp70
sbsbaa(lp71
(irule
Rule
p72
(dp73
g4
(irule
Guard
p74
(dp75
g7
I00
sg8
(lp76
sg10
I00
sg11
g12
sbsg13
(irule
FeatureMatrix
p77
(dp78
g16
(lp79
(I00
g18
tp80
asbsg20
(irule
Guard
p81
(dp82
g7
I00
sg8
(lp83
(irule
FeatureMatrix
p84
(dp85
g16
(lp86
(I00
g18
tp87
asbasg10
I00
sg11
g27
sbsg28
(irule
FeatureMatrix
p88
(dp89
g16
(lp90
sbsbaa(lp91
(irule
Rule
p92
(dp93
g4
(irule
Guard
p94
(dp95
g7
I00
sg8
(lp96
sg10
I00
sg11
g12
sbsg13
(irule
FeatureMatrix
p97
(dp98
g16
(lp99
(I00
g18
tp100
asbsg20
(irule
Guard
p101
(dp102
g7
I00
sg8
(lp103
(irule
FeatureMatrix
p104
(dp105
g16
(lp106
(I00
S'rounded'
p107
tp108
asbasg10
I00
sg11
g27
sbsg28
(irule
FeatureMatrix
p109
(dp110
g16
(lp111
sbsbaa(lp112
(irule
Rule
p113
(dp114
g4
(irule
Guard
p115
(dp116
g7
I00
sg8
(lp117
sg10
I00
sg11
g12
sbsg13
(irule
FeatureMatrix
p118
(dp119
g16
(lp120
(I00
g18
tp121
asbsg20
(irule
Guard
p122
(dp123
g7
I00
sg8
(lp124
(irule
FeatureMatrix
p125
(dp126
g16
(lp127
(I01
g48
tp128
asbasg10
I00
sg11
g27
sbsg28
(irule
FeatureMatrix
p129
(dp130
g16
(lp131
sbsbaa(lp132
(irule
Rule
p133
(dp134
g4
(irule
Guard
p135
(dp136
g7
I00
sg8
(lp137
sg10
I00
sg11
g12
sbsg13
(irule
FeatureMatrix
p138
(dp139
g16
(lp140
(I00
g18
tp141
asbsg20
(irule
Guard
p142
(dp143
g7
I00
sg8
(lp144
(irule
FeatureMatrix
p145
(dp146
g16
(lp147
(I00
S'fricative'
p148
tp149
asbasg10
I00
sg11
g27
sbsg28
(irule
FeatureMatrix
p150
(dp151
g16
(lp152
sbsbaa(lp153
(irule
Rule
p154
(dp155
g4
(irule
Guard
p156
(dp157
g7
I00
sg8
(lp158
(irule
FeatureMatrix
p159
(dp160
g16
(lp161
sbasg10
I00
sg11
g12
sbsg13
(irule
FeatureMatrix
p162
(dp163
g16
(lp164
(I01
g18
tp165
asbsg20
(irule
Guard
p166
(dp167
g7
I01
sg8
(lp168
sg10
I00
sg11
g27
sbsg28
(irule
FeatureMatrix
p169
(dp170
g16
(lp171
(I00
g48
tp172
asbsbaa(lp173
(irule
Rule
p174
(dp175
g4
(irule
Guard
p176
(dp177
g7
I00
sg8
(lp178
(irule
FeatureMatrix
p179
(dp180
g16
(lp181
(I01
g48
tp182
asbasg10
I00
sg11
g12
sbsg13
(irule
FeatureMatrix
p183
(dp184
g16
(lp185
(I01
g18
tp186
asbsg20
(irule
Guard
p187
(dp188
g7
I00
sg8
(lp189
sg10
I00
sg11
g27
sbsg28
(irule
FeatureMatrix
p190
(dp191
g16
(lp192
(I01
S'stop'
p193
tp194
asbsbaa(lp195
(irule
Rule
p196
(dp197
g4
(irule
Guard
p198
(dp199
g7
I00
sg8
(lp200
(irule
FeatureMatrix
p201
(dp202
g16
(lp203
(I00
g148
tp204
asbasg10
I00
sg11
g12
sbsg13
(irule
FeatureMatrix
p205
(dp206
g16
(lp207
(I01
g18
tp208
asbsg20
(irule
Guard
p209
(dp210
g7
I00
sg8
(lp211
sg10
I00
sg11
g27
sbsg28
(irule
FeatureMatrix
p212
(dp213
g16
(lp214
(I01
g193
tp215
asbsbaa.