(lp0
(lp1
(irule
Rule
p2
(dp3
S'leftTriggers'
p4
(irule
Guard
p5
(dp6
S'endOfString'
p7
I00
sS'specifications'
p8
(lp9
sS'starred'
p10
I00
sS'side'
p11
S'L'
p12
sbsS'structuralChange'
p13
(irule
ConstantPhoneme
p14
(dp15
S'p'
p16
VN
p17
sbsS'rightTriggers'
p18
(irule
Guard
p19
(dp20
g7
I00
sg8
(lp21
(irule
FeatureMatrix
p22
(dp23
S'featuresAndPolarities'
p24
(lp25
(I01
S'uvular'
p26
tp27
asbasg10
I00
sg11
S'R'
p28
sbsS'focus'
p29
(irule
FeatureMatrix
p30
(dp31
g24
(lp32
(I00
S'middle'
p33
tp34
asbsbaa(lp35
(irule
Rule
p36
(dp37
g4
(irule
Guard
p38
(dp39
g7
I00
sg8
(lp40
sg10
I00
sg11
g12
sbsg13
(irule
ConstantPhoneme
p41
(dp42
g16
g17
sbsg18
(irule
Guard
p43
(dp44
g7
I00
sg8
(lp45
(irule
ConstantPhoneme
p46
(dp47
g16
Vq
p48
sbasg10
I00
sg11
g28
sbsg29
(irule
FeatureMatrix
p49
(dp50
g24
(lp51
(I01
S'velar'
p52
tp53
asbsbaa(lp54
(irule
Rule
p55
(dp56
g4
(irule
Guard
p57
(dp58
g7
I00
sg8
(lp59
(irule
FeatureMatrix
p60
(dp61
g24
(lp62
sbasg10
I00
sg11
g12
sbsg13
(irule
ConstantPhoneme
p63
(dp64
g16
g17
sbsg18
(irule
Guard
p65
(dp66
g7
I00
sg8
(lp67
(irule
FeatureMatrix
p68
(dp69
g24
(lp70
(I01
g26
tp71
asbasg10
I00
sg11
g28
sbsg29
(irule
FeatureMatrix
p72
(dp73
g24
(lp74
(I00
S'vowel'
p75
tp76
asbsbaa(lp77
(irule
Rule
p78
(dp79
g4
(irule
Guard
p80
(dp81
g7
I00
sg8
(lp82
(irule
FeatureMatrix
p83
(dp84
g24
(lp85
sbasg10
I00
sg11
g12
sbsg13
(irule
ConstantPhoneme
p86
(dp87
g16
g17
sbsg18
(irule
Guard
p88
(dp89
g7
I00
sg8
(lp90
(irule
ConstantPhoneme
p91
(dp92
g16
g48
sbasg10
I00
sg11
g28
sbsg29
(irule
FeatureMatrix
p93
(dp94
g24
(lp95
(I00
g75
tp96
asbsbaa(lp97
(irule
Rule
p98
(dp99
g4
(irule
Guard
p100
(dp101
g7
I00
sg8
(lp102
sg10
I00
sg11
g12
sbsg13
(irule
ConstantPhoneme
p103
(dp104
g16
g17
sbsg18
(irule
Guard
p105
(dp106
g7
I00
sg8
(lp107
(irule
FeatureMatrix
p108
(dp109
g24
(lp110
(I00
g52
tp111
a(I00
S'voice'
p112
tp113
asbasg10
I00
sg11
g28
sbsg29
(irule
FeatureMatrix
p114
(dp115
g24
(lp116
(I01
g52
tp117
asbsbaa(lp118
(irule
Rule
p119
(dp120
g4
(irule
Guard
p121
(dp122
g7
I00
sg8
(lp123
sg10
I00
sg11
g12
sbsg13
(irule
ConstantPhoneme
p124
(dp125
g16
g17
sbsg18
(irule
Guard
p126
(dp127
g7
I00
sg8
(lp128
(irule
FeatureMatrix
p129
(dp130
g24
(lp131
(I00
S'approximate'
p132
tp133
a(I00
g52
tp134
asbasg10
I00
sg11
g28
sbsg29
(irule
ConstantPhoneme
p135
(dp136
g16
V\u014b
p137
sbsbaa(lp138
(irule
Rule
p139
(dp140
g4
(irule
Guard
p141
(dp142
g7
I00
sg8
(lp143
sg10
I00
sg11
g12
sbsg13
(irule
ConstantPhoneme
p144
(dp145
g16
g17
sbsg18
(irule
Guard
p146
(dp147
g7
I00
sg8
(lp148
(irule
ConstantPhoneme
p149
(dp150
g16
g48
sba(irule
FeatureMatrix
p151
(dp152
g24
(lp153
sbasg10
I00
sg11
g28
sbsg29
(irule
FeatureMatrix
p154
(dp155
g24
(lp156
(I00
S'front'
p157
tp158
asbsbaa(lp159
(irule
Rule
p160
(dp161
g4
(irule
Guard
p162
(dp163
g7
I00
sg8
(lp164
sg10
I00
sg11
g12
sbsg13
(irule
ConstantPhoneme
p165
(dp166
g16
g17
sbsg18
(irule
Guard
p167
(dp168
g7
I00
sg8
(lp169
(irule
FeatureMatrix
p170
(dp171
g24
(lp172
(I00
S'alveolar'
p173
tp174
a(I00
g52
tp175
asbasg10
I00
sg11
g28
sbsg29
(irule
ConstantPhoneme
p176
(dp177
g16
g137
sbsbaa(lp178
(irule
Rule
p179
(dp180
g4
(irule
Guard
p181
(dp182
g7
I00
sg8
(lp183
sg10
I00
sg11
g12
sbsg13
(irule
ConstantPhoneme
p184
(dp185
g16
g17
sbsg18
(irule
Guard
p186
(dp187
g7
I00
sg8
(lp188
(irule
FeatureMatrix
p189
(dp190
g24
(lp191
(I00
S'affricate'
p192
tp193
a(I01
g26
tp194
asbasg10
I00
sg11
g28
sbsg29
(irule
FeatureMatrix
p195
(dp196
g24
(lp197
(I00
g33
tp198
asbsbaa(lp199
(irule
Rule
p200
(dp201
g4
(irule
Guard
p202
(dp203
g7
I00
sg8
(lp204
sg10
I00
sg11
g12
sbsg13
(irule
ConstantPhoneme
p205
(dp206
g16
g17
sbsg18
(irule
Guard
p207
(dp208
g7
I00
sg8
(lp209
(irule
FeatureMatrix
p210
(dp211
g24
(lp212
(I00
S'rounded'
p213
tp214
a(I01
g26
tp215
asbasg10
I00
sg11
g28
sbsg29
(irule
FeatureMatrix
p216
(dp217
g24
(lp218
(I00
g33
tp219
asbsbaa.