(lp0
(lp1
(irule
Rule
p2
(dp3
S'leftTriggers'
p4
(irule
Guard
p5
(dp6
S'endOfString'
p7
I00
sS'specifications'
p8
(lp9
(irule
FeatureMatrix
p10
(dp11
S'featuresAndPolarities'
p12
(lp13
(I00
S'glide'
p14
tp15
a(I00
S'aspirated'
p16
tp17
a(I00
S'nasal'
p18
tp19
asbasS'starred'
p20
I00
sS'side'
p21
S'L'
p22
sbsS'structuralChange'
p23
(irule
ConstantPhoneme
p24
(dp25
S'p'
p26
Ve
p27
sbsS'rightTriggers'
p28
(irule
Guard
p29
(dp30
g7
I00
sg8
(lp31
(irule
FeatureMatrix
p32
(dp33
g12
(lp34
(I00
S'bilabial'
p35
tp36
a(I01
S'voice'
p37
tp38
asba(irule
FeatureMatrix
p39
(dp40
g12
(lp41
(I00
g35
tp42
a(I00
S'alveolar'
p43
tp44
a(I00
g18
tp45
asbasg20
I01
sg21
S'R'
p46
sbsS'focus'
p47
(irule
FeatureMatrix
p48
(dp49
g12
(lp50
(I01
S'high'
p51
tp52
asbsbaa(lp53
(irule
Rule
p54
(dp55
g4
(irule
Guard
p56
(dp57
g7
I00
sg8
(lp58
(irule
FeatureMatrix
p59
(dp60
g12
(lp61
(I00
g14
tp62
a(I00
g16
tp63
asbasg20
I00
sg21
g22
sbsg23
(irule
ConstantPhoneme
p64
(dp65
g26
g27
sbsg28
(irule
Guard
p66
(dp67
g7
I00
sg8
(lp68
(irule
FeatureMatrix
p69
(dp70
g12
(lp71
(I00
S'fricative'
p72
tp73
a(I00
S'approximate'
p74
tp75
a(I00
g14
tp76
asba(irule
FeatureMatrix
p77
(dp78
g12
(lp79
(I00
g35
tp80
a(I00
g43
tp81
a(I00
g18
tp82
asbasg20
I01
sg21
g46
sbsg47
(irule
FeatureMatrix
p83
(dp84
g12
(lp85
(I01
S'front'
p86
tp87
asbsbaa(lp88
(irule
Rule
p89
(dp90
g4
(irule
Guard
p91
(dp92
g7
I00
sg8
(lp93
(irule
FeatureMatrix
p94
(dp95
g12
(lp96
(I00
S'palatal'
p97
tp98
a(I00
g16
tp99
a(I00
g18
tp100
asbasg20
I00
sg21
g22
sbsg23
(irule
ConstantPhoneme
p101
(dp102
g26
g27
sbsg28
(irule
Guard
p103
(dp104
g7
I00
sg8
(lp105
(irule
FeatureMatrix
p106
(dp107
g12
(lp108
(I00
g72
tp109
a(I00
g35
tp110
asba(irule
FeatureMatrix
p111
(dp112
g12
(lp113
(I00
g14
tp114
a(I00
g43
tp115
a(I00
g18
tp116
asbasg20
I01
sg21
g46
sbsg47
(irule
ConstantPhoneme
p117
(dp118
g26
Vi
p119
sbsbaa(lp120
(irule
Rule
p121
(dp122
g4
(irule
Guard
p123
(dp124
g7
I00
sg8
(lp125
(irule
FeatureMatrix
p126
(dp127
g12
(lp128
(I00
g14
tp129
a(I00
g16
tp130
a(I00
g18
tp131
asbasg20
I00
sg21
g22
sbsg23
(irule
ConstantPhoneme
p132
(dp133
g26
g27
sbsg28
(irule
Guard
p134
(dp135
g7
I00
sg8
(lp136
(irule
FeatureMatrix
p137
(dp138
g12
(lp139
(I00
g72
tp140
a(I00
g35
tp141
asba(irule
FeatureMatrix
p142
(dp143
g12
(lp144
(I00
g35
tp145
a(I00
g43
tp146
a(I00
g18
tp147
asbasg20
I01
sg21
g46
sbsg47
(irule
FeatureMatrix
p148
(dp149
g12
(lp150
(I01
g86
tp151
asbsbaa(lp152
(irule
Rule
p153
(dp154
g4
(irule
Guard
p155
(dp156
g7
I00
sg8
(lp157
(irule
FeatureMatrix
p158
(dp159
g12
(lp160
(I00
g97
tp161
a(I00
g16
tp162
asbasg20
I00
sg21
g22
sbsg23
(irule
ConstantPhoneme
p163
(dp164
g26
g27
sbsg28
(irule
Guard
p165
(dp166
g7
I00
sg8
(lp167
(irule
FeatureMatrix
p168
(dp169
g12
(lp170
(I00
g72
tp171
a(I00
g74
tp172
a(I00
g14
tp173
asba(irule
FeatureMatrix
p174
(dp175
g12
(lp176
(I00
g35
tp177
a(I00
g18
tp178
a(I00
S'coronal'
p179
tp180
asbasg20
I01
sg21
g46
sbsg47
(irule
FeatureMatrix
p181
(dp182
g12
(lp183
(I01
g86
tp184
asbsbaa(lp185
(irule
Rule
p186
(dp187
g4
(irule
Guard
p188
(dp189
g7
I00
sg8
(lp190
(irule
FeatureMatrix
p191
(dp192
g12
(lp193
(I00
g97
tp194
a(I00
g16
tp195
asbasg20
I00
sg21
g22
sbsg23
(irule
ConstantPhoneme
p196
(dp197
g26
g27
sbsg28
(irule
Guard
p198
(dp199
g7
I00
sg8
(lp200
(irule
FeatureMatrix
p201
(dp202
g12
(lp203
(I00
g35
tp204
a(I00
g74
tp205
a(I01
g37
tp206
asba(irule
FeatureMatrix
p207
(dp208
g12
(lp209
(I00
g14
tp210
a(I00
g43
tp211
a(I00
g18
tp212
asbasg20
I01
sg21
g46
sbsg47
(irule
FeatureMatrix
p213
(dp214
g12
(lp215
(I01
g51
tp216
asbsbaa(lp217
(irule
Rule
p218
(dp219
g4
(irule
Guard
p220
(dp221
g7
I00
sg8
(lp222
(irule
FeatureMatrix
p223
(dp224
g12
(lp225
(I00
g14
tp226
a(I00
g16
tp227
asbasg20
I00
sg21
g22
sbsg23
(irule
ConstantPhoneme
p228
(dp229
g26
g27
sbsg28
(irule
Guard
p230
(dp231
g7
I00
sg8
(lp232
(irule
FeatureMatrix
p233
(dp234
g12
(lp235
(I00
g72
tp236
a(I00
g35
tp237
a(I00
g74
tp238
asba(irule
FeatureMatrix
p239
(dp240
g12
(lp241
(I00
g35
tp242
a(I00
g43
tp243
a(I00
g18
tp244
asbasg20
I01
sg21
g46
sbsg47
(irule
FeatureMatrix
p245
(dp246
g12
(lp247
(I01
g86
tp248
asbsbaa(lp249
(irule
Rule
p250
(dp251
g4
(irule
Guard
p252
(dp253
g7
I00
sg8
(lp254
(irule
FeatureMatrix
p255
(dp256
g12
(lp257
(I00
g97
tp258
a(I00
g16
tp259
a(I00
g18
tp260
asbasg20
I00
sg21
g22
sbsg23
(irule
ConstantPhoneme
p261
(dp262
g26
g27
sbsg28
(irule
Guard
p263
(dp264
g7
I00
sg8
(lp265
(irule
FeatureMatrix
p266
(dp267
g12
(lp268
(I00
g35
tp269
a(I01
g37
tp270
asba(irule
FeatureMatrix
p271
(dp272
g12
(lp273
(I00
g35
tp274
a(I00
g43
tp275
a(I00
g18
tp276
asbasg20
I01
sg21
g46
sbsg47
(irule
FeatureMatrix
p277
(dp278
g12
(lp279
(I01
g51
tp280
asbsbaa(lp281
(irule
Rule
p282
(dp283
g4
(irule
Guard
p284
(dp285
g7
I00
sg8
(lp286
(irule
FeatureMatrix
p287
(dp288
g12
(lp289
(I00
g14
tp290
a(I00
g16
tp291
asbasg20
I00
sg21
g22
sbsg23
(irule
ConstantPhoneme
p292
(dp293
g26
g27
sbsg28
(irule
Guard
p294
(dp295
g7
I00
sg8
(lp296
(irule
FeatureMatrix
p297
(dp298
g12
(lp299
(I00
g72
tp300
a(I00
g35
tp301
a(I00
g74
tp302
asba(irule
FeatureMatrix
p303
(dp304
g12
(lp305
(I00
g14
tp306
a(I00
g43
tp307
a(I00
g18
tp308
asbasg20
I01
sg21
g46
sbsg47
(irule
FeatureMatrix
p309
(dp310
g12
(lp311
(I01
g86
tp312
asbsbaa(lp313
(irule
Rule
p314
(dp315
g4
(irule
Guard
p316
(dp317
g7
I00
sg8
(lp318
(irule
FeatureMatrix
p319
(dp320
g12
(lp321
(I00
g14
tp322
a(I00
g16
tp323
a(I00
g18
tp324
asbasg20
I00
sg21
g22
sbsg23
(irule
ConstantPhoneme
p325
(dp326
g26
g27
sbsg28
(irule
Guard
p327
(dp328
g7
I00
sg8
(lp329
(irule
FeatureMatrix
p330
(dp331
g12
(lp332
(I00
g72
tp333
a(I00
g35
tp334
asba(irule
FeatureMatrix
p335
(dp336
g12
(lp337
(I00
g14
tp338
a(I00
g43
tp339
a(I00
g18
tp340
asbasg20
I01
sg21
g46
sbsg47
(irule
FeatureMatrix
p341
(dp342
g12
(lp343
(I01
g86
tp344
asbsbaa.