(lp0
(lp1
(irule
Rule
p2
(dp3
S'leftTriggers'
p4
(irule
Guard
p5
(dp6
S'endOfString'
p7
I00
sS'specifications'
p8
(lp9
sS'starred'
p10
I00
sS'side'
p11
S'L'
p12
sbsS'structuralChange'
p13
(irule
FeatureMatrix
p14
(dp15
S'featuresAndPolarities'
p16
(lp17
(I01
S'uvular'
p18
tp19
a(I00
S'sonorant'
p20
tp21
a(I00
S'velar'
p22
tp23
asbsS'rightTriggers'
p24
(irule
Guard
p25
(dp26
g7
I00
sg8
(lp27
(irule
ConstantPhoneme
p28
(dp29
S'p'
p30
Vg
p31
sba(irule
FeatureMatrix
p32
(dp33
g16
(lp34
(I00
S'high'
p35
tp36
a(I00
S'stop'
p37
tp38
a(I00
S'front'
p39
tp40
asbasg10
I01
sg11
S'R'
p41
sbsS'focus'
p42
(irule
FeatureMatrix
p43
(dp44
g16
(lp45
(I01
g22
tp46
asbsbaa(lp47
(irule
Rule
p48
(dp49
g4
(irule
Guard
p50
(dp51
g7
I00
sg8
(lp52
sg10
I00
sg11
g12
sbsg13
(irule
FeatureMatrix
p53
(dp54
g16
(lp55
(I01
g18
tp56
a(I00
g20
tp57
a(I00
g22
tp58
asbsg24
(irule
Guard
p59
(dp60
g7
I00
sg8
(lp61
(irule
FeatureMatrix
p62
(dp63
g16
(lp64
(I01
g22
tp65
asba(irule
FeatureMatrix
p66
(dp67
g16
(lp68
(I00
g35
tp69
a(I00
g37
tp70
a(I00
g39
tp71
asbasg10
I01
sg11
g41
sbsg42
(irule
FeatureMatrix
p72
(dp73
g16
(lp74
(I01
g22
tp75
asbsbaa(lp76
(irule
Rule
p77
(dp78
g4
(irule
Guard
p79
(dp80
g7
I00
sg8
(lp81
sg10
I00
sg11
g12
sbsg13
(irule
FeatureMatrix
p82
(dp83
g16
(lp84
(I01
g18
tp85
a(I00
g20
tp86
a(I00
g22
tp87
asbsg24
(irule
Guard
p88
(dp89
g7
I00
sg8
(lp90
(irule
FeatureMatrix
p91
(dp92
g16
(lp93
(I01
g22
tp94
asba(irule
FeatureMatrix
p95
(dp96
g16
(lp97
(I00
g35
tp98
a(I01
S'vowel'
p99
tp100
a(I00
g39
tp101
asbasg10
I01
sg11
g41
sbsg42
(irule
FeatureMatrix
p102
(dp103
g16
(lp104
(I01
g22
tp105
asbsbaa(lp106
(irule
Rule
p107
(dp108
g4
(irule
Guard
p109
(dp110
g7
I00
sg8
(lp111
sg10
I00
sg11
g12
sbsg13
(irule
FeatureMatrix
p112
(dp113
g16
(lp114
(I01
g18
tp115
a(I00
g20
tp116
a(I00
g22
tp117
asbsg24
(irule
Guard
p118
(dp119
g7
I00
sg8
(lp120
(irule
FeatureMatrix
p121
(dp122
g16
(lp123
(I01
g22
tp124
asba(irule
FeatureMatrix
p125
(dp126
g16
(lp127
(I00
g35
tp128
a(I01
g20
tp129
a(I00
g39
tp130
asbasg10
I01
sg11
g41
sbsg42
(irule
FeatureMatrix
p131
(dp132
g16
(lp133
(I01
g22
tp134
asbsbaa(lp135
(irule
Rule
p136
(dp137
g4
(irule
Guard
p138
(dp139
g7
I00
sg8
(lp140
sg10
I00
sg11
g12
sbsg13
(irule
FeatureMatrix
p141
(dp142
g16
(lp143
(I01
g18
tp144
a(I00
g20
tp145
a(I00
g22
tp146
asbsg24
(irule
Guard
p147
(dp148
g7
I00
sg8
(lp149
(irule
ConstantPhoneme
p150
(dp151
g30
g31
sba(irule
FeatureMatrix
p152
(dp153
g16
(lp154
(I00
g35
tp155
a(I01
g20
tp156
a(I00
g39
tp157
asbasg10
I01
sg11
g41
sbsg42
(irule
FeatureMatrix
p158
(dp159
g16
(lp160
(I01
g22
tp161
asbsbaa(lp162
(irule
Rule
p163
(dp164
g4
(irule
Guard
p165
(dp166
g7
I00
sg8
(lp167
sg10
I00
sg11
g12
sbsg13
(irule
FeatureMatrix
p168
(dp169
g16
(lp170
(I01
g18
tp171
a(I00
g20
tp172
a(I00
g22
tp173
asbsg24
(irule
Guard
p174
(dp175
g7
I00
sg8
(lp176
(irule
ConstantPhoneme
p177
(dp178
g30
g31
sba(irule
FeatureMatrix
p179
(dp180
g16
(lp181
(I00
g35
tp182
a(I01
g99
tp183
a(I00
g39
tp184
asbasg10
I01
sg11
g41
sbsg42
(irule
FeatureMatrix
p185
(dp186
g16
(lp187
(I01
g22
tp188
asbsbaa(lp189
(irule
Rule
p190
(dp191
g4
(irule
Guard
p192
(dp193
g7
I00
sg8
(lp194
sg10
I00
sg11
g12
sbsg13
(irule
FeatureMatrix
p195
(dp196
g16
(lp197
(I01
g18
tp198
a(I00
g20
tp199
a(I00
g22
tp200
asbsg24
(irule
Guard
p201
(dp202
g7
I00
sg8
(lp203
(irule
FeatureMatrix
p204
(dp205
g16
(lp206
(I00
S'bilabial'
p207
tp208
a(I00
S'coronal'
p209
tp210
asba(irule
FeatureMatrix
p211
(dp212
g16
(lp213
(I00
g35
tp214
a(I01
g99
tp215
a(I00
g39
tp216
asbasg10
I01
sg11
g41
sbsg42
(irule
FeatureMatrix
p217
(dp218
g16
(lp219
(I01
g22
tp220
asbsbaa(lp221
(irule
Rule
p222
(dp223
g4
(irule
Guard
p224
(dp225
g7
I00
sg8
(lp226
sg10
I00
sg11
g12
sbsg13
(irule
FeatureMatrix
p227
(dp228
g16
(lp229
(I01
g18
tp230
a(I00
g20
tp231
a(I00
g22
tp232
asbsg24
(irule
Guard
p233
(dp234
g7
I00
sg8
(lp235
(irule
FeatureMatrix
p236
(dp237
g16
(lp238
(I00
S'back'
p239
tp240
a(I01
g22
tp241
asba(irule
FeatureMatrix
p242
(dp243
g16
(lp244
(I00
g35
tp245
a(I00
g37
tp246
a(I00
g39
tp247
asbasg10
I01
sg11
g41
sbsg42
(irule
FeatureMatrix
p248
(dp249
g16
(lp250
(I01
g22
tp251
asbsbaa(lp252
(irule
Rule
p253
(dp254
g4
(irule
Guard
p255
(dp256
g7
I00
sg8
(lp257
sg10
I00
sg11
g12
sbsg13
(irule
FeatureMatrix
p258
(dp259
g16
(lp260
(I01
g18
tp261
a(I00
g20
tp262
a(I00
g22
tp263
asbsg24
(irule
Guard
p264
(dp265
g7
I00
sg8
(lp266
(irule
FeatureMatrix
p267
(dp268
g16
(lp269
(I00
S'fricative'
p270
tp271
a(I01
g22
tp272
asba(irule
FeatureMatrix
p273
(dp274
g16
(lp275
(I00
g35
tp276
a(I01
g20
tp277
a(I00
g39
tp278
asbasg10
I01
sg11
g41
sbsg42
(irule
FeatureMatrix
p279
(dp280
g16
(lp281
(I01
g22
tp282
asbsbaa(lp283
(irule
Rule
p284
(dp285
g4
(irule
Guard
p286
(dp287
g7
I00
sg8
(lp288
sg10
I00
sg11
g12
sbsg13
(irule
FeatureMatrix
p289
(dp290
g16
(lp291
(I01
g18
tp292
a(I00
g20
tp293
a(I00
g22
tp294
asbsg24
(irule
Guard
p295
(dp296
g7
I00
sg8
(lp297
(irule
FeatureMatrix
p298
(dp299
g16
(lp300
(I00
g207
tp301
a(I01
S'voice'
p302
tp303
asba(irule
FeatureMatrix
p304
(dp305
g16
(lp306
(I00
g35
tp307
a(I01
g99
tp308
a(I00
g39
tp309
asbasg10
I01
sg11
g41
sbsg42
(irule
FeatureMatrix
p310
(dp311
g16
(lp312
(I01
g22
tp313
asbsbaa.