(lp0
(lp1
(irule
Rule
p2
(dp3
S'leftTriggers'
p4
(irule
Guard
p5
(dp6
S'endOfString'
p7
I00
sS'specifications'
p8
(lp9
(irule
FeatureMatrix
p10
(dp11
S'featuresAndPolarities'
p12
(lp13
(I00
S'palatal'
p14
tp15
a(I00
S'alveopalatal'
p16
tp17
asbasS'starred'
p18
I00
sS'side'
p19
S'L'
p20
sbsS'structuralChange'
p21
(irule
ConstantPhoneme
p22
(dp23
S'p'
p24
V\u0259
p25
sbsS'rightTriggers'
p26
(irule
Guard
p27
(dp28
g7
I00
sg8
(lp29
sg18
I00
sg19
S'R'
p30
sbsS'focus'
p31
(irule
FeatureMatrix
p32
(dp33
g12
(lp34
(I01
S'lax'
p35
tp36
asbsbaa(lp37
(irule
Rule
p38
(dp39
g4
(irule
Guard
p40
(dp41
g7
I00
sg8
(lp42
(irule
FeatureMatrix
p43
(dp44
g12
(lp45
(I00
S'glide'
p46
tp47
a(I00
g16
tp48
asbasg18
I00
sg19
g20
sbsg21
(irule
ConstantPhoneme
p49
(dp50
g24
g25
sbsg26
(irule
Guard
p51
(dp52
g7
I00
sg8
(lp53
sg18
I00
sg19
g30
sbsg31
(irule
FeatureMatrix
p54
(dp55
g12
(lp56
(I01
g35
tp57
asbsbaa(lp58
(irule
Rule
p59
(dp60
g4
(irule
Guard
p61
(dp62
g7
I00
sg8
(lp63
(irule
FeatureMatrix
p64
(dp65
g12
(lp66
(I00
S'rounded'
p67
tp68
a(I00
g14
tp69
a(I00
g16
tp70
asbasg18
I00
sg19
g20
sbsg21
(irule
ConstantPhoneme
p71
(dp72
g24
g25
sbsg26
(irule
Guard
p73
(dp74
g7
I00
sg8
(lp75
sg18
I00
sg19
g30
sbsg31
(irule
FeatureMatrix
p76
(dp77
g12
(lp78
(I01
g35
tp79
asbsbaa(lp80
(irule
Rule
p81
(dp82
g4
(irule
Guard
p83
(dp84
g7
I00
sg8
(lp85
(irule
FeatureMatrix
p86
(dp87
g12
(lp88
(I00
g46
tp89
a(I00
g14
tp90
a(I00
g16
tp91
asbasg18
I00
sg19
g20
sbsg21
(irule
ConstantPhoneme
p92
(dp93
g24
g25
sbsg26
(irule
Guard
p94
(dp95
g7
I00
sg8
(lp96
sg18
I00
sg19
g30
sbsg31
(irule
FeatureMatrix
p97
(dp98
g12
(lp99
(I01
g35
tp100
asbsbaa(lp101
(irule
Rule
p102
(dp103
g4
(irule
Guard
p104
(dp105
g7
I00
sg8
(lp106
(irule
FeatureMatrix
p107
(dp108
g12
(lp109
(I00
g46
tp110
a(I00
g16
tp111
a(I00
g35
tp112
asbasg18
I00
sg19
g20
sbsg21
(irule
ConstantPhoneme
p113
(dp114
g24
g25
sbsg26
(irule
Guard
p115
(dp116
g7
I00
sg8
(lp117
sg18
I00
sg19
g30
sbsg31
(irule
FeatureMatrix
p118
(dp119
g12
(lp120
(I01
g35
tp121
asbsbaa(lp122
(irule
Rule
p123
(dp124
g4
(irule
Guard
p125
(dp126
g7
I00
sg8
(lp127
(irule
FeatureMatrix
p128
(dp129
g12
(lp130
(I00
S'middle'
p131
tp132
a(I00
g14
tp133
a(I00
g16
tp134
asbasg18
I00
sg19
g20
sbsg21
(irule
ConstantPhoneme
p135
(dp136
g24
g25
sbsg26
(irule
Guard
p137
(dp138
g7
I00
sg8
(lp139
sg18
I00
sg19
g30
sbsg31
(irule
FeatureMatrix
p140
(dp141
g12
(lp142
(I01
g35
tp143
asbsbaa(lp144
(irule
Rule
p145
(dp146
g4
(irule
Guard
p147
(dp148
g7
I00
sg8
(lp149
(irule
FeatureMatrix
p150
(dp151
g12
(lp152
(I00
g67
tp153
a(I00
g46
tp154
a(I00
g16
tp155
asbasg18
I00
sg19
g20
sbsg21
(irule
ConstantPhoneme
p156
(dp157
g24
g25
sbsg26
(irule
Guard
p158
(dp159
g7
I00
sg8
(lp160
sg18
I00
sg19
g30
sbsg31
(irule
FeatureMatrix
p161
(dp162
g12
(lp163
(I01
g35
tp164
asbsbaa(lp165
(irule
Rule
p166
(dp167
g4
(irule
Guard
p168
(dp169
g7
I00
sg8
(lp170
(irule
FeatureMatrix
p171
(dp172
g12
(lp173
(I00
g131
tp174
a(I00
g46
tp175
a(I00
g16
tp176
asbasg18
I00
sg19
g20
sbsg21
(irule
ConstantPhoneme
p177
(dp178
g24
g25
sbsg26
(irule
Guard
p179
(dp180
g7
I00
sg8
(lp181
sg18
I00
sg19
g30
sbsg31
(irule
FeatureMatrix
p182
(dp183
g12
(lp184
(I01
g35
tp185
asbsbaa(lp186
(irule
Rule
p187
(dp188
g4
(irule
Guard
p189
(dp190
g7
I00
sg8
(lp191
(irule
FeatureMatrix
p192
(dp193
g12
(lp194
(I00
S'affricate'
p195
tp196
a(I00
g14
tp197
a(I00
g16
tp198
asbasg18
I00
sg19
g20
sbsg21
(irule
ConstantPhoneme
p199
(dp200
g24
g25
sbsg26
(irule
Guard
p201
(dp202
g7
I00
sg8
(lp203
sg18
I00
sg19
g30
sbsg31
(irule
FeatureMatrix
p204
(dp205
g12
(lp206
(I01
g35
tp207
asbsbaa(lp208
(irule
Rule
p209
(dp210
g4
(irule
Guard
p211
(dp212
g7
I00
sg8
(lp213
(irule
FeatureMatrix
p214
(dp215
g12
(lp216
(I00
g195
tp217
a(I00
g46
tp218
a(I00
g16
tp219
asbasg18
I00
sg19
g20
sbsg21
(irule
ConstantPhoneme
p220
(dp221
g24
g25
sbsg26
(irule
Guard
p222
(dp223
g7
I00
sg8
(lp224
sg18
I00
sg19
g30
sbsg31
(irule
FeatureMatrix
p225
(dp226
g12
(lp227
(I01
g35
tp228
asbsbaa.