(lp0
(lp1
(irule
Rule
p2
(dp3
S'leftTriggers'
p4
(irule
Guard
p5
(dp6
S'endOfString'
p7
I00
sS'specifications'
p8
(lp9
sS'starred'
p10
I00
sS'side'
p11
S'L'
p12
sbsS'structuralChange'
p13
(irule
FeatureMatrix
p14
(dp15
S'featuresAndPolarities'
p16
(lp17
(I01
S'voice'
p18
tp19
asbsS'rightTriggers'
p20
(irule
Guard
p21
(dp22
g7
I00
sg8
(lp23
(irule
FeatureMatrix
p24
(dp25
g16
(lp26
(I01
g18
tp27
asbasg10
I00
sg11
S'R'
p28
sbsS'focus'
p29
(irule
FeatureMatrix
p30
(dp31
g16
(lp32
(I01
S'nasal'
p33
tp34
asbsbaa(lp35
(irule
Rule
p36
(dp37
g4
(irule
Guard
p38
(dp39
g7
I00
sg8
(lp40
sg10
I00
sg11
g12
sbsg13
(irule
FeatureMatrix
p41
(dp42
g16
(lp43
(I01
g18
tp44
asbsg20
(irule
Guard
p45
(dp46
g7
I00
sg8
(lp47
(irule
FeatureMatrix
p48
(dp49
g16
(lp50
(I00
S'aspirated'
p51
tp52
asbasg10
I00
sg11
g28
sbsg29
(irule
FeatureMatrix
p53
(dp54
g16
(lp55
(I01
g33
tp56
asbsbaa(lp57
(irule
Rule
p58
(dp59
g4
(irule
Guard
p60
(dp61
g7
I00
sg8
(lp62
sg10
I00
sg11
g12
sbsg13
(irule
FeatureMatrix
p63
(dp64
g16
(lp65
(I00
g18
tp66
asbsg20
(irule
Guard
p67
(dp68
g7
I00
sg8
(lp69
(irule
FeatureMatrix
p70
(dp71
g16
(lp72
(I01
g51
tp73
asbasg10
I00
sg11
g28
sbsg29
(irule
FeatureMatrix
p74
(dp75
g16
(lp76
(I00
S'rounded'
p77
tp78
asbsbaa(lp79
(irule
Rule
p80
(dp81
g4
(irule
Guard
p82
(dp83
g7
I00
sg8
(lp84
sg10
I00
sg11
g12
sbsg13
(irule
FeatureMatrix
p85
(dp86
g16
(lp87
(I00
g18
tp88
asbsg20
(irule
Guard
p89
(dp90
g7
I00
sg8
(lp91
(irule
FeatureMatrix
p92
(dp93
g16
(lp94
(I00
g18
tp95
asbasg10
I00
sg11
g28
sbsg29
(irule
FeatureMatrix
p96
(dp97
g16
(lp98
(I00
S'vowel'
p99
tp100
asbsbaa(lp101
(irule
Rule
p102
(dp103
g4
(irule
Guard
p104
(dp105
g7
I00
sg8
(lp106
sg10
I00
sg11
g12
sbsg13
(irule
FeatureMatrix
p107
(dp108
g16
(lp109
(I01
g18
tp110
asbsg20
(irule
Guard
p111
(dp112
g7
I00
sg8
(lp113
(irule
FeatureMatrix
p114
(dp115
g16
(lp116
(I00
g51
tp117
a(I00
g77
tp118
asbasg10
I00
sg11
g28
sbsg29
(irule
FeatureMatrix
p119
(dp120
g16
(lp121
(I01
S'sonorant'
p122
tp123
asbsbaa(lp124
(irule
Rule
p125
(dp126
g4
(irule
Guard
p127
(dp128
g7
I00
sg8
(lp129
sg10
I00
sg11
g12
sbsg13
(irule
FeatureMatrix
p130
(dp131
g16
(lp132
(I01
g18
tp133
asbsg20
(irule
Guard
p134
(dp135
g7
I00
sg8
(lp136
(irule
FeatureMatrix
p137
(dp138
g16
(lp139
(I00
g51
tp140
a(I00
S'middle'
p141
tp142
asbasg10
I00
sg11
g28
sbsg29
(irule
FeatureMatrix
p143
(dp144
g16
(lp145
(I01
g33
tp146
asbsbaa(lp147
(irule
Rule
p148
(dp149
g4
(irule
Guard
p150
(dp151
g7
I00
sg8
(lp152
sg10
I00
sg11
g12
sbsg13
(irule
FeatureMatrix
p153
(dp154
g16
(lp155
(I01
g18
tp156
asbsg20
(irule
Guard
p157
(dp158
g7
I00
sg8
(lp159
(irule
FeatureMatrix
p160
(dp161
g16
(lp162
(I00
g51
tp163
a(I00
g33
tp164
asbasg10
I00
sg11
g28
sbsg29
(irule
FeatureMatrix
p165
(dp166
g16
(lp167
(I01
g33
tp168
asbsbaa(lp169
(irule
Rule
p170
(dp171
g4
(irule
Guard
p172
(dp173
g7
I00
sg8
(lp174
sg10
I00
sg11
g12
sbsg13
(irule
FeatureMatrix
p175
(dp176
g16
(lp177
(I01
g18
tp178
asbsg20
(irule
Guard
p179
(dp180
g7
I00
sg8
(lp181
(irule
FeatureMatrix
p182
(dp183
g16
(lp184
(I00
S'laryngeal'
p185
tp186
a(I00
g51
tp187
asbasg10
I00
sg11
g28
sbsg29
(irule
FeatureMatrix
p188
(dp189
g16
(lp190
(I01
g33
tp191
asbsbaa(lp192
(irule
Rule
p193
(dp194
g4
(irule
Guard
p195
(dp196
g7
I00
sg8
(lp197
sg10
I00
sg11
g12
sbsg13
(irule
FeatureMatrix
p198
(dp199
g16
(lp200
(I01
g18
tp201
asbsg20
(irule
Guard
p202
(dp203
g7
I00
sg8
(lp204
(irule
FeatureMatrix
p205
(dp206
g16
(lp207
(I00
g51
tp208
a(I00
S'velar'
p209
tp210
asbasg10
I00
sg11
g28
sbsg29
(irule
FeatureMatrix
p211
(dp212
g16
(lp213
(I01
g33
tp214
asbsbaa(lp215
(irule
Rule
p216
(dp217
g4
(irule
Guard
p218
(dp219
g7
I00
sg8
(lp220
sg10
I00
sg11
g12
sbsg13
(irule
FeatureMatrix
p221
(dp222
g16
(lp223
(I01
g18
tp224
asbsg20
(irule
Guard
p225
(dp226
g7
I00
sg8
(lp227
(irule
FeatureMatrix
p228
(dp229
g16
(lp230
(I00
S'back'
p231
tp232
a(I01
g18
tp233
asbasg10
I00
sg11
g28
sbsg29
(irule
FeatureMatrix
p234
(dp235
g16
(lp236
(I00
S'stop'
p237
tp238
asbsbaa.