(lp0
(lp1
(irule
Rule
p2
(dp3
S'leftTriggers'
p4
(irule
Guard
p5
(dp6
S'endOfString'
p7
I00
sS'specifications'
p8
(lp9
(irule
FeatureMatrix
p10
(dp11
S'featuresAndPolarities'
p12
(lp13
sbasS'starred'
p14
I00
sS'side'
p15
S'L'
p16
sbsS'structuralChange'
p17
(irule
ConstantPhoneme
p18
(dp19
S'p'
p20
Vy
p21
sbsS'rightTriggers'
p22
(irule
Guard
p23
(dp24
g7
I00
sg8
(lp25
sg14
I00
sg15
S'R'
p26
sbsS'focus'
p27
(irule
ConstantPhoneme
p28
(dp29
g20
Vk
p30
sbsba(irule
Rule
p31
(dp32
g4
(irule
Guard
p33
(dp34
g7
I00
sg8
(lp35
(irule
FeatureMatrix
p36
(dp37
g12
(lp38
sbasg14
I00
sg15
g16
sbsg17
(irule
ConstantPhoneme
p39
(dp40
g20
Vw
p41
sbsg22
(irule
Guard
p42
(dp43
g7
I00
sg8
(lp44
sg14
I00
sg15
g26
sbsg27
(irule
FeatureMatrix
p45
(dp46
g12
(lp47
(I01
S'bilabial'
p48
tp49
asbsbaa(lp50
(irule
Rule
p51
(dp52
g4
(irule
Guard
p53
(dp54
g7
I00
sg8
(lp55
(irule
FeatureMatrix
p56
(dp57
g12
(lp58
sbasg14
I00
sg15
g16
sbsg17
(irule
ConstantPhoneme
p59
(dp60
g20
g21
sbsg22
(irule
Guard
p61
(dp62
g7
I00
sg8
(lp63
sg14
I00
sg15
g26
sbsg27
(irule
FeatureMatrix
p64
(dp65
g12
(lp66
(I01
S'velar'
p67
tp68
asbsba(irule
Rule
p69
(dp70
g4
(irule
Guard
p71
(dp72
g7
I00
sg8
(lp73
(irule
FeatureMatrix
p74
(dp75
g12
(lp76
sbasg14
I00
sg15
g16
sbsg17
(irule
ConstantPhoneme
p77
(dp78
g20
g41
sbsg22
(irule
Guard
p79
(dp80
g7
I00
sg8
(lp81
sg14
I00
sg15
g26
sbsg27
(irule
FeatureMatrix
p82
(dp83
g12
(lp84
(I01
g48
tp85
asbsbaa.